(lp0
S"\n    >>> multiply_string('a', 4)\n    'aaaa'\n    >>> multiply_string('Hello', 2)\n    'HelloHello'\n    >>> multiply_string('Python', 3)\n    'PythonPythonPython'\n    "
p1
aS"\n    >>> make_HTML('i', 'Test')\n    '<i>Test</i>'\n    >>> make_HTML('b', 'Important!')\n    '<b>Important!</b>'\n    >>> make_HTML('code', 'variable')\n    '<code>variable</code>'\n    "
p2
aS"\n    >>> hello_many(['Joao', 'Bryan'])\n    'Hello Joao and Bryan! How are you?'\n    >>> hello_many(['Joao', 'Bryan', 'Will'])\n    'Hello Joao and Bryan and Will! How are you?'\n    >>> hello_many(['Will'])\n    'Hello Will! How are you?'\n    "
p3
aS"\n    >>> stretch_string('banana', 2)\n    'bbaannaannaa'\n    >>> stretch_string('apple', 3)\n    'aaappppppllleee'\n    >>> stretch_string('fig', 4)\n    'ffffiiiigggg'\n    "
p4
aS"\n    >>> spelling_bee('hello', 'hello')\n    'correct'\n    >>> spelling_bee('python', 'pithon')\n    'almost'\n    >>> spelling_bee('echolocation', 'eckolocashun')\n    'wrong'\n    "
p5
a.