(lp0
S"\n    >>> hello('Joao')\n    'Hello Joao! How are you?'\n    >>> hello('Bryan')\n    'Hello Bryan! How are you?'\n    >>> hello('Will')\n    'Hello Will! How are you?'\n    "
p1
aS'\n    >>> cube(1)\n    1\n    >>> cube(2)\n    8\n    >>> cube(3)\n    27\n    '
p2
aS"\n    >>> too_long_for_twitter('The Analytical Engine weaves algebraic patterns, just as the Jacquard loom weaves flowers and leaves.' +\n    ... '-- Ada Lovelace, the first programmer')\n    False\n    >>> too_long_for_twitter('Four score and seven years ago our fathers brought forth on this continent a new nation, ' +\n    ... 'conceived in liberty, and dedicated to the proposition that all men are created equal.')\n    True\n    >>> too_long_for_twitter('They told me computers could only do arithmetic. -- Computer pioneer Grace Hopper')\n    False\n    "
p3
aS'\n    >>> greatest(3, 9, 6)\n    9\n    >>> greatest(0.5, 0.25, 0)\n    0.5\n    >>> greatest(4, 5, 5)\n    5\n    '
p4
aS'\n    >>> calculate(2)\n    5\n    >>> calculate(5)\n    5\n    >>> calculate(289.5)\n    5.0\n    '
p5
aS"\n    >>> menu_specials('asparagus', 'pasta primavera')\n    'Today our specials are: asparagus and pasta primavera'\n    >>> menu_specials('artichoke', 'steak frites')\n    'Today our specials are: artichoke and steak frites'\n    >>> menu_specials('kale', 'fondue')\n    'Today our specials are: kale and fondue'\n    "
p6
aS"\n    >>>\n    >>> return_first_item(['a', 'b', 'c'])\n    'a'\n    >>> return_first_item([4.5, 72, -1, 6])\n    4.5\n    >>> return_first_item(['Hermione', 'Ron', 'Harry'])\n    'Hermione'\n    "
p7
aS"\n    >>> add_exclamation(['alpha', 'beta'])\n    ['alpha', 'beta', '!']\n    >>> add_exclamation(['Jessica', 'likes', 'ice cream'])\n    ['Jessica', 'likes', 'ice cream', '!']\n    >>> add_exclamation(['?', '#', '$'])\n    ['?', '#', '$', '!']\n    "
p8
aS"\n    >>> find_student('Wanda', ['Henry', 'Beatrice', 'Wanda', 'Evan'])\n    True\n    >>> find_student('Adam', ['Tanya', 'Alice', 'Sean'])\n    False\n    >>> find_student('Jen', ['Jessica', 'Jessie', 'Jerry', 'Jen'])\n    True\n    "
p9
aS"\n    >>> count_fs('Finished files are the result of years of scientific study combined with the experience of years.')\n    6\n    >>> count_fs('Four score and seven years ago')\n    1\n    >>> count_fs('A man, a plan, a canal - Panama!')\n    0\n    "
p10
aS"\n    >>> starts_or_ends_with_z('pizzazz')\n    True\n    >>> starts_or_ends_with_z('python')\n    False\n    >>> starts_or_ends_with_z('zap')\n    True\n    "
p11
aS"\n    >>> sum_of_all_strings(['Eleanor', 'Rigby'])\n    12\n    >>> sum_of_all_strings(['Eight', 'Days', 'a', 'Week'])\n    14\n    >>> sum_of_all_strings(['Strawberry', 'Fields', 'Forever'])\n    23\n    "
p12
aS'\n    >>> squares_list([1, 2, 3])\n    [1, 4, 9]\n    >>> squares_list([4, 0])\n    [16, 0]\n    >>> squares_list([12, 9, 6, 3])\n    [144, 81, 36, 9]\n    '
p13
aS"\n    >>> remove_vowels('bookkeeper')\n    'bkkpr'\n    >>> remove_vowels('almanac')\n    'lmnc'\n    >>> remove_vowels('syzygy')\n    'syzygy'\n    "
p14
aS"\n    >>> remove_words_with_vowels(['hymn', 'myth', 'myrrh', 'nymph'])\n    ['hymn', 'myth', 'myrrh', 'nymph']\n    >>> remove_words_with_vowels(['who', 'what', 'when', 'where', 'why'])\n    ['why']\n    >>> remove_words_with_vowels(['coy', 'sly', 'shy', 'bashful'])\n    ['sly', 'shy']\n    "
p15
a.