(lp0
S"\n    >>> split_lines('First line\\nSecond line')\n    ['First line', 'Second line']\n    >>> split_lines('One line only')\n    ['One line only']\n    >>> split_lines('First line\\n\\nThird line')\n    ['First line', '', 'Third line']\n    "
p1
aS"\n    >>> join_lines(['First line', 'Second line'])\n    'First line\\nSecond line'\n    >>> join_lines(['One line only'])\n    'One line only'\n    >>> join_lines(['First line', '', 'Third line'])\n    'First line\\n\\nThird line'\n    "
p2
aS"\n    >>> clean_line('First Second Third')\n    'Second'\n    >>> clean_line('First Second')\n    ''\n    >>> clean_line('1. 1 2 3 \\n')\n    '1 2 3'\n    "
p3
aS'\n    >>> square_list([0,1])\n    [0, 1]\n    >>> square_list([1,3,5])\n    [1, 9, 25]\n    >>> square_list([-1,-2,-3])\n    [1, 4, 9]\n    '
p4
aS'\n    >>> chars_before_comma(\'This a particularly dull sentence, why did they put it in this notebook?\')\n    33\n    >>> chars_before_comma("To be, or not to be, that is the question\xe2\x80\x94\\nWhether \'tis Nobler in the mind to suffer\\nThe Slings and Arrows of outrageous Fortune,\\nOr to take Arms against a Sea of troubles,\\nAnd by opposing end them?")\n    5\n   '
p5
aS'\n    >>> import numpy as np; null_vector(1)\n    array([ 0.])\n    >>> import numpy as np; null_vector(2)\n    array([ 0.,  0.])\n    >>> import numpy as np; null_vector(4)\n    array([ 0.,  0.,  0.,  0.])\n   '
p6
aS'\n    >>> import numpy as np; checkboard()\n    array([[ 0.,  1.,  0.,  1.],\n           [ 1.,  0.,  1.,  0.],\n           [ 0.,  1.,  0.,  1.],\n           [ 1.,  0.,  1.,  0.]])\n    '
p7
aS'\n    >>> import numpy as np; gen_poly(np.linspace(1,10,10), 1, 1, 0)\n    array([   2.,    6.,   12.,   20.,   30.,   42.,   56.,   72.,   90.,  110.])\n    >>> import numpy as np; gen_poly(np.linspace(1,10,10), 2, 1, 0)\n    array([   3.,   10.,   21.,   36.,   55.,   78.,  105.,  136.,  171.,  210.])\n    >>> import numpy as np; gen_poly(np.linspace(0,1,5), 1, 5, 5)\n    array([  5.    ,   6.3125,   7.75  ,   9.3125,  11.    ])\n    '
p8
a.